ARM GAS  C:\Users\new_s\AppData\Local\Temp\ccjSQnxj.s 			page 1


   1              		.syntax unified
   2              		.cpu cortex-m3
   3              		.fpu softvfp
   4              		.eabi_attribute 20, 1
   5              		.eabi_attribute 21, 1
   6              		.eabi_attribute 23, 3
   7              		.eabi_attribute 24, 1
   8              		.eabi_attribute 25, 1
   9              		.eabi_attribute 26, 1
  10              		.eabi_attribute 30, 1
  11              		.eabi_attribute 34, 1
  12              		.eabi_attribute 18, 4
  13              		.thumb
  14              		.syntax unified
  15              		.file	"main.c"
  16              		.text
  17              	.Ltext0:
  18              		.cfi_sections	.debug_frame
  19              		.section	.text.SENSOR_int,"ax",%progbits
  20              		.align	2
  21              		.global	SENSOR_int
  22              		.thumb
  23              		.thumb_func
  24              		.type	SENSOR_int, %function
  25              	SENSOR_int:
  26              	.LFB63:
  27              		.file 1 "main.c"
   1:main.c        **** #include "project.h"
   2:main.c        **** #include "stdlib.h"
   3:main.c        **** #define ALARM_ON 1u
   4:main.c        **** #define ALARM_OFF 0u
   5:main.c        **** int Counter = 0, Start = 0, Digits = 0, D1, D2, D3, D4, D5, FinalN;
   6:main.c        **** 
   7:main.c        **** CY_ISR(SENSOR_int)
   8:main.c        **** {
  28              		.loc 1 8 0
  29              		.cfi_startproc
  30              		@ args = 0, pretend = 0, frame = 0
  31              		@ frame_needed = 0, uses_anonymous_args = 0
  32 0000 08B5     		push	{r3, lr}
  33              		.cfi_def_cfa_offset 8
  34              		.cfi_offset 3, -8
  35              		.cfi_offset 14, -4
   9:main.c        ****     Counter--;
  36              		.loc 1 9 0
  37 0002 054A     		ldr	r2, .L3
  38 0004 1368     		ldr	r3, [r2]
  39 0006 013B     		subs	r3, r3, #1
  40 0008 1360     		str	r3, [r2]
  10:main.c        ****     CyDelay(250);
  41              		.loc 1 10 0
  42 000a FA20     		movs	r0, #250
  43 000c FFF7FEFF 		bl	CyDelay
  44              	.LVL0:
  11:main.c        ****     SENSOR_ClearInterrupt();
  45              		.loc 1 11 0
  46 0010 FFF7FEFF 		bl	SENSOR_ClearInterrupt
ARM GAS  C:\Users\new_s\AppData\Local\Temp\ccjSQnxj.s 			page 2


  47              	.LVL1:
  48 0014 08BD     		pop	{r3, pc}
  49              	.L4:
  50 0016 00BF     		.align	2
  51              	.L3:
  52 0018 00000000 		.word	.LANCHOR0
  53              		.cfi_endproc
  54              	.LFE63:
  55              		.size	SENSOR_int, .-SENSOR_int
  56              		.section	.text.isr_FILA,"ax",%progbits
  57              		.align	2
  58              		.global	isr_FILA
  59              		.thumb
  60              		.thumb_func
  61              		.type	isr_FILA, %function
  62              	isr_FILA:
  63              	.LFB64:
  12:main.c        **** }
  13:main.c        **** 
  14:main.c        **** CY_ISR(isr_FILA)
  15:main.c        **** {
  64              		.loc 1 15 0
  65              		.cfi_startproc
  66              		@ args = 0, pretend = 0, frame = 0
  67              		@ frame_needed = 0, uses_anonymous_args = 0
  68 0000 10B5     		push	{r4, lr}
  69              		.cfi_def_cfa_offset 8
  70              		.cfi_offset 4, -8
  71              		.cfi_offset 14, -4
  72              	.LVL2:
  16:main.c        ****     int Temp = 0, Ctrl = 0;
  17:main.c        ****     uint8 tecla, columna;
  18:main.c        ****     tecla=FILAS_Read();
  73              		.loc 1 18 0
  74 0002 FFF7FEFF 		bl	FILAS_Read
  75              	.LVL3:
  76 0006 0446     		mov	r4, r0
  77              	.LVL4:
  19:main.c        ****     columna=COLUMNAS_Read();
  78              		.loc 1 19 0
  79 0008 FFF7FEFF 		bl	COLUMNAS_Read
  80              	.LVL5:
  20:main.c        ****     tecla=tecla<<4;
  81              		.loc 1 20 0
  82 000c 2401     		lsls	r4, r4, #4
  83              	.LVL6:
  84 000e E4B2     		uxtb	r4, r4
  85              	.LVL7:
  21:main.c        ****     tecla=tecla|columna;
  86              		.loc 1 21 0
  87 0010 2043     		orrs	r0, r0, r4
  88              	.LVL8:
  89 0012 C4B2     		uxtb	r4, r0
  90              	.LVL9:
  22:main.c        ****     
  23:main.c        ****     if (Start == 0)
  91              		.loc 1 23 0
ARM GAS  C:\Users\new_s\AppData\Local\Temp\ccjSQnxj.s 			page 3


  92 0014 6D4B     		ldr	r3, .L40
  93 0016 5B68     		ldr	r3, [r3, #4]
  94 0018 3BB9     		cbnz	r3, .L6
  24:main.c        ****     {
  25:main.c        ****         switch (tecla)
  95              		.loc 1 25 0
  96 001a D72C     		cmp	r4, #215
  97 001c 40F0B880 		bne	.L37
  26:main.c        ****         {
  27:main.c        ****             case 0xD7:
  28:main.c        ****                 //B
  29:main.c        ****                 Start = 1;
  98              		.loc 1 29 0
  99 0020 0122     		movs	r2, #1
 100 0022 6A4B     		ldr	r3, .L40
 101 0024 5A60     		str	r2, [r3, #4]
  16:main.c        ****     uint8 tecla, columna;
 102              		.loc 1 16 0
 103 0026 0024     		movs	r4, #0
 104              	.LVL10:
  30:main.c        ****                 break;
 105              		.loc 1 30 0
 106 0028 B7E0     		b	.L7
 107              	.LVL11:
 108              	.L6:
  31:main.c        ****         }
  32:main.c        ****     }
  33:main.c        ****     else if (Digits < 5 && Start < 2)
 109              		.loc 1 33 0
 110 002a 684A     		ldr	r2, .L40
 111 002c 9268     		ldr	r2, [r2, #8]
 112 002e 042A     		cmp	r2, #4
 113 0030 00F3A580 		bgt	.L9
 114              		.loc 1 33 0 is_stmt 0 discriminator 1
 115 0034 012B     		cmp	r3, #1
 116 0036 00F3A280 		bgt	.L9
  34:main.c        ****     {
  35:main.c        ****         switch(tecla)
 117              		.loc 1 35 0 is_stmt 1
 118 003a DB2C     		cmp	r4, #219
 119 003c 4BD0     		beq	.L11
 120 003e 0CD8     		bhi	.L12
 121 0040 BD2C     		cmp	r4, #189
 122 0042 62D0     		beq	.L13
 123 0044 04D8     		bhi	.L14
 124 0046 7D2C     		cmp	r4, #125
 125 0048 73D0     		beq	.L15
 126 004a BB2C     		cmp	r4, #187
 127 004c 67D0     		beq	.L16
 128 004e 7AE0     		b	.L34
 129              	.L14:
 130 0050 BE2C     		cmp	r4, #190
 131 0052 50D0     		beq	.L17
 132 0054 D72C     		cmp	r4, #215
 133 0056 48D0     		beq	.L18
 134 0058 75E0     		b	.L34
 135              	.L12:
ARM GAS  C:\Users\new_s\AppData\Local\Temp\ccjSQnxj.s 			page 4


 136 005a EB2C     		cmp	r4, #235
 137 005c 1DD0     		beq	.L19
 138 005e 04D8     		bhi	.L20
 139 0060 DD2C     		cmp	r4, #221
 140 0062 2ED0     		beq	.L21
 141 0064 DE2C     		cmp	r4, #222
 142 0066 22D0     		beq	.L22
 143 0068 6DE0     		b	.L34
 144              	.L20:
 145 006a ED2C     		cmp	r4, #237
 146 006c 0BD0     		beq	.L23
 147 006e EE2C     		cmp	r4, #238
 148 0070 69D1     		bne	.L34
 149              	.LVL12:
  36:main.c        ****         {
  37:main.c        ****             case 0xEE:
  38:main.c        ****                 //1
  39:main.c        ****                 Temp = 1;
  40:main.c        ****                 LCD_PutChar('1');
 150              		.loc 1 40 0
 151 0072 3120     		movs	r0, #49
 152 0074 FFF7FEFF 		bl	LCD_PutChar
 153              	.LVL13:
  41:main.c        ****                 Digits++;
 154              		.loc 1 41 0
 155 0078 544A     		ldr	r2, .L40
 156 007a 9368     		ldr	r3, [r2, #8]
 157 007c 0133     		adds	r3, r3, #1
 158 007e 9360     		str	r3, [r2, #8]
 159              	.LVL14:
  42:main.c        ****                 Ctrl = 1;
 160              		.loc 1 42 0
 161 0080 0123     		movs	r3, #1
  39:main.c        ****                 LCD_PutChar('1');
 162              		.loc 1 39 0
 163 0082 1C46     		mov	r4, r3
 164              	.LVL15:
  43:main.c        ****                 break;
 165              		.loc 1 43 0
 166 0084 61E0     		b	.L10
 167              	.LVL16:
 168              	.L23:
  44:main.c        ****             case 0xED:
  45:main.c        ****                 //2
  46:main.c        ****                 Temp = 2;
  47:main.c        ****                 LCD_PutChar('2');
 169              		.loc 1 47 0
 170 0086 3220     		movs	r0, #50
 171 0088 FFF7FEFF 		bl	LCD_PutChar
 172              	.LVL17:
  48:main.c        ****                 Digits++;
 173              		.loc 1 48 0
 174 008c 4F4A     		ldr	r2, .L40
 175 008e 9368     		ldr	r3, [r2, #8]
 176 0090 0133     		adds	r3, r3, #1
 177 0092 9360     		str	r3, [r2, #8]
 178              	.LVL18:
ARM GAS  C:\Users\new_s\AppData\Local\Temp\ccjSQnxj.s 			page 5


  49:main.c        ****                 Ctrl = 1;
 179              		.loc 1 49 0
 180 0094 0123     		movs	r3, #1
  46:main.c        ****                 LCD_PutChar('2');
 181              		.loc 1 46 0
 182 0096 0224     		movs	r4, #2
 183              	.LVL19:
  50:main.c        ****                 break;
 184              		.loc 1 50 0
 185 0098 57E0     		b	.L10
 186              	.LVL20:
 187              	.L19:
  51:main.c        ****             case 0xEB:
  52:main.c        ****                 //3
  53:main.c        ****                 Temp = 3;
  54:main.c        ****                 LCD_PutChar('3');
 188              		.loc 1 54 0
 189 009a 3320     		movs	r0, #51
 190 009c FFF7FEFF 		bl	LCD_PutChar
 191              	.LVL21:
  55:main.c        ****                 Digits++;
 192              		.loc 1 55 0
 193 00a0 4A4A     		ldr	r2, .L40
 194 00a2 9368     		ldr	r3, [r2, #8]
 195 00a4 0133     		adds	r3, r3, #1
 196 00a6 9360     		str	r3, [r2, #8]
 197              	.LVL22:
  56:main.c        ****                 Ctrl = 1;
 198              		.loc 1 56 0
 199 00a8 0123     		movs	r3, #1
  53:main.c        ****                 LCD_PutChar('3');
 200              		.loc 1 53 0
 201 00aa 0324     		movs	r4, #3
 202              	.LVL23:
  57:main.c        ****                 break;   
 203              		.loc 1 57 0
 204 00ac 4DE0     		b	.L10
 205              	.LVL24:
 206              	.L22:
  58:main.c        ****             case 0xE7:
  59:main.c        ****                 //A
  60:main.c        ****                 //Start = 2; 
  61:main.c        ****                 break;
  62:main.c        ****             case 0xDE:
  63:main.c        ****                 //4
  64:main.c        ****                 Temp = 4;
  65:main.c        ****                 LCD_PutChar('4');
 207              		.loc 1 65 0
 208 00ae 3420     		movs	r0, #52
 209 00b0 FFF7FEFF 		bl	LCD_PutChar
 210              	.LVL25:
  66:main.c        ****                 Digits++;
 211              		.loc 1 66 0
 212 00b4 454A     		ldr	r2, .L40
 213 00b6 9368     		ldr	r3, [r2, #8]
 214 00b8 0133     		adds	r3, r3, #1
 215 00ba 9360     		str	r3, [r2, #8]
ARM GAS  C:\Users\new_s\AppData\Local\Temp\ccjSQnxj.s 			page 6


 216              	.LVL26:
  67:main.c        ****                 Ctrl = 1;
 217              		.loc 1 67 0
 218 00bc 0123     		movs	r3, #1
  64:main.c        ****                 LCD_PutChar('4');
 219              		.loc 1 64 0
 220 00be 0424     		movs	r4, #4
 221              	.LVL27:
  68:main.c        ****                 break;
 222              		.loc 1 68 0
 223 00c0 43E0     		b	.L10
 224              	.LVL28:
 225              	.L21:
  69:main.c        ****             case 0xDD:
  70:main.c        ****                 //5
  71:main.c        ****                 Temp = 5;
  72:main.c        ****                 LCD_PutChar('5');
 226              		.loc 1 72 0
 227 00c2 3520     		movs	r0, #53
 228 00c4 FFF7FEFF 		bl	LCD_PutChar
 229              	.LVL29:
  73:main.c        ****                 Digits++;
 230              		.loc 1 73 0
 231 00c8 404A     		ldr	r2, .L40
 232 00ca 9368     		ldr	r3, [r2, #8]
 233 00cc 0133     		adds	r3, r3, #1
 234 00ce 9360     		str	r3, [r2, #8]
 235              	.LVL30:
  74:main.c        ****                 Ctrl = 1;
 236              		.loc 1 74 0
 237 00d0 0123     		movs	r3, #1
  71:main.c        ****                 LCD_PutChar('5');
 238              		.loc 1 71 0
 239 00d2 0524     		movs	r4, #5
 240              	.LVL31:
  75:main.c        ****                 break;
 241              		.loc 1 75 0
 242 00d4 39E0     		b	.L10
 243              	.LVL32:
 244              	.L11:
  76:main.c        ****             case 0xDB:
  77:main.c        ****                 //6
  78:main.c        ****                 Temp = 6;
  79:main.c        ****                 LCD_PutChar('6');
 245              		.loc 1 79 0
 246 00d6 3620     		movs	r0, #54
 247 00d8 FFF7FEFF 		bl	LCD_PutChar
 248              	.LVL33:
  80:main.c        ****                 Digits++;
 249              		.loc 1 80 0
 250 00dc 3B4A     		ldr	r2, .L40
 251 00de 9368     		ldr	r3, [r2, #8]
 252 00e0 0133     		adds	r3, r3, #1
 253 00e2 9360     		str	r3, [r2, #8]
 254              	.LVL34:
  81:main.c        ****                 Ctrl = 1;
 255              		.loc 1 81 0
ARM GAS  C:\Users\new_s\AppData\Local\Temp\ccjSQnxj.s 			page 7


 256 00e4 0123     		movs	r3, #1
  78:main.c        ****                 LCD_PutChar('6');
 257              		.loc 1 78 0
 258 00e6 0624     		movs	r4, #6
 259              	.LVL35:
  82:main.c        ****                 break;
 260              		.loc 1 82 0
 261 00e8 2FE0     		b	.L10
 262              	.LVL36:
 263              	.L18:
  83:main.c        ****             case 0xD7:
  84:main.c        ****                 //B
  85:main.c        ****                 Start = 2;
 264              		.loc 1 85 0
 265 00ea 0222     		movs	r2, #2
 266 00ec 374B     		ldr	r3, .L40
 267 00ee 5A60     		str	r2, [r3, #4]
  16:main.c        ****     uint8 tecla, columna;
 268              		.loc 1 16 0
 269 00f0 0023     		movs	r3, #0
 270 00f2 1C46     		mov	r4, r3
 271              	.LVL37:
  86:main.c        ****                 break;
 272              		.loc 1 86 0
 273 00f4 29E0     		b	.L10
 274              	.LVL38:
 275              	.L17:
  87:main.c        ****             case 0xBE:
  88:main.c        ****                 //7
  89:main.c        ****                 Temp = 7;
  90:main.c        ****                 LCD_PutChar('7');
 276              		.loc 1 90 0
 277 00f6 3720     		movs	r0, #55
 278 00f8 FFF7FEFF 		bl	LCD_PutChar
 279              	.LVL39:
  91:main.c        ****                 Digits++;
 280              		.loc 1 91 0
 281 00fc 334A     		ldr	r2, .L40
 282 00fe 9368     		ldr	r3, [r2, #8]
 283 0100 0133     		adds	r3, r3, #1
 284 0102 9360     		str	r3, [r2, #8]
 285              	.LVL40:
  92:main.c        ****                 Ctrl = 1;
 286              		.loc 1 92 0
 287 0104 0123     		movs	r3, #1
  89:main.c        ****                 LCD_PutChar('7');
 288              		.loc 1 89 0
 289 0106 0724     		movs	r4, #7
 290              	.LVL41:
  93:main.c        ****                 break;
 291              		.loc 1 93 0
 292 0108 1FE0     		b	.L10
 293              	.LVL42:
 294              	.L13:
  94:main.c        ****             case 0xBD:
  95:main.c        ****                 //8
  96:main.c        ****                 Temp = 8;
ARM GAS  C:\Users\new_s\AppData\Local\Temp\ccjSQnxj.s 			page 8


  97:main.c        ****                 LCD_PutChar('8');
 295              		.loc 1 97 0
 296 010a 3820     		movs	r0, #56
 297 010c FFF7FEFF 		bl	LCD_PutChar
 298              	.LVL43:
  98:main.c        ****                 Digits++;
 299              		.loc 1 98 0
 300 0110 2E4A     		ldr	r2, .L40
 301 0112 9368     		ldr	r3, [r2, #8]
 302 0114 0133     		adds	r3, r3, #1
 303 0116 9360     		str	r3, [r2, #8]
 304              	.LVL44:
  99:main.c        ****                 Ctrl = 1;
 305              		.loc 1 99 0
 306 0118 0123     		movs	r3, #1
  96:main.c        ****                 LCD_PutChar('8');
 307              		.loc 1 96 0
 308 011a 0824     		movs	r4, #8
 309              	.LVL45:
 100:main.c        ****                 break;
 310              		.loc 1 100 0
 311 011c 15E0     		b	.L10
 312              	.LVL46:
 313              	.L16:
 101:main.c        ****             case 0xBB:
 102:main.c        ****                 //9
 103:main.c        ****                 Temp = 9;
 104:main.c        ****                 LCD_PutChar('9');
 314              		.loc 1 104 0
 315 011e 3920     		movs	r0, #57
 316 0120 FFF7FEFF 		bl	LCD_PutChar
 317              	.LVL47:
 105:main.c        ****                 Digits++;
 318              		.loc 1 105 0
 319 0124 294A     		ldr	r2, .L40
 320 0126 9368     		ldr	r3, [r2, #8]
 321 0128 0133     		adds	r3, r3, #1
 322 012a 9360     		str	r3, [r2, #8]
 323              	.LVL48:
 106:main.c        ****                 Ctrl = 1;
 324              		.loc 1 106 0
 325 012c 0123     		movs	r3, #1
 103:main.c        ****                 LCD_PutChar('9');
 326              		.loc 1 103 0
 327 012e 0924     		movs	r4, #9
 328              	.LVL49:
 107:main.c        ****                 break;
 329              		.loc 1 107 0
 330 0130 0BE0     		b	.L10
 331              	.LVL50:
 332              	.L15:
 108:main.c        ****             case 0xB7:
 109:main.c        ****                 //C
 110:main.c        ****                 break;
 111:main.c        ****             case 0x7E:
 112:main.c        ****                 //*
 113:main.c        ****                 break;
ARM GAS  C:\Users\new_s\AppData\Local\Temp\ccjSQnxj.s 			page 9


 114:main.c        ****             case 0x7D:
 115:main.c        ****                 //0
 116:main.c        ****                 Temp = 0;
 117:main.c        ****                 LCD_PutChar('0');
 333              		.loc 1 117 0
 334 0132 3020     		movs	r0, #48
 335 0134 FFF7FEFF 		bl	LCD_PutChar
 336              	.LVL51:
 118:main.c        ****                 Digits++;
 337              		.loc 1 118 0
 338 0138 244A     		ldr	r2, .L40
 339 013a 9368     		ldr	r3, [r2, #8]
 340 013c 0133     		adds	r3, r3, #1
 341 013e 9360     		str	r3, [r2, #8]
 342              	.LVL52:
 119:main.c        ****                 Ctrl = 1;
 343              		.loc 1 119 0
 344 0140 0123     		movs	r3, #1
 116:main.c        ****                 LCD_PutChar('0');
 345              		.loc 1 116 0
 346 0142 0024     		movs	r4, #0
 347              	.LVL53:
 120:main.c        ****                 break;
 348              		.loc 1 120 0
 349 0144 01E0     		b	.L10
 350              	.LVL54:
 351              	.L34:
  16:main.c        ****     uint8 tecla, columna;
 352              		.loc 1 16 0
 353 0146 0023     		movs	r3, #0
 354 0148 1C46     		mov	r4, r3
 355              	.LVL55:
 356              	.L10:
 121:main.c        ****             case 0x7B:
 122:main.c        ****                 //#
 123:main.c        ****                 break;
 124:main.c        ****             case 0x77:
 125:main.c        ****                 //D
 126:main.c        ****                 break;
 127:main.c        ****         }
 128:main.c        ****         
 129:main.c        ****         if (Ctrl == 1)
 357              		.loc 1 129 0
 358 014a 33B3     		cbz	r3, .L7
 130:main.c        ****         {
 131:main.c        ****             switch (Digits)
 359              		.loc 1 131 0
 360 014c 1F4B     		ldr	r3, .L40
 361              	.LVL56:
 362 014e 9B68     		ldr	r3, [r3, #8]
 363 0150 013B     		subs	r3, r3, #1
 364 0152 042B     		cmp	r3, #4
 365 0154 21D8     		bhi	.L7
 366 0156 DFE803F0 		tbb	[pc, r3]
 367              	.L26:
 368 015a 03       		.byte	(.L25-.L26)/2
 369 015b 06       		.byte	(.L27-.L26)/2
ARM GAS  C:\Users\new_s\AppData\Local\Temp\ccjSQnxj.s 			page 10


 370 015c 09       		.byte	(.L28-.L26)/2
 371 015d 0C       		.byte	(.L29-.L26)/2
 372 015e 0F       		.byte	(.L30-.L26)/2
 373 015f 00       		.p2align 1
 374              	.L25:
 132:main.c        ****             {
 133:main.c        ****                 case (1):
 134:main.c        ****                     D1 = Temp;
 375              		.loc 1 134 0
 376 0160 1B4B     		ldr	r3, .L40+4
 377 0162 1C60     		str	r4, [r3]
 135:main.c        ****                     break;
 378              		.loc 1 135 0
 379 0164 19E0     		b	.L7
 380              	.L27:
 136:main.c        ****                 case (2):
 137:main.c        ****                     D2 = Temp;
 381              		.loc 1 137 0
 382 0166 1B4B     		ldr	r3, .L40+8
 383 0168 1C60     		str	r4, [r3]
 138:main.c        ****                     break;
 384              		.loc 1 138 0
 385 016a 16E0     		b	.L7
 386              	.L28:
 139:main.c        ****                 case (3):
 140:main.c        ****                     D3 = Temp;
 387              		.loc 1 140 0
 388 016c 1A4B     		ldr	r3, .L40+12
 389 016e 1C60     		str	r4, [r3]
 141:main.c        ****                     break;
 390              		.loc 1 141 0
 391 0170 13E0     		b	.L7
 392              	.L29:
 142:main.c        ****                 case (4):
 143:main.c        ****                     D4 = Temp;
 393              		.loc 1 143 0
 394 0172 1A4B     		ldr	r3, .L40+16
 395 0174 1C60     		str	r4, [r3]
 144:main.c        ****                     break;
 396              		.loc 1 144 0
 397 0176 10E0     		b	.L7
 398              	.L30:
 145:main.c        ****                 case (5):
 146:main.c        ****                     D5 = Temp;
 399              		.loc 1 146 0
 400 0178 194B     		ldr	r3, .L40+20
 401 017a 1C60     		str	r4, [r3]
 147:main.c        ****                     break;
 402              		.loc 1 147 0
 403 017c 0DE0     		b	.L7
 404              	.LVL57:
 405              	.L9:
 148:main.c        ****             }
 149:main.c        ****         }
 150:main.c        ****     }
 151:main.c        ****     else if (Digits == 5)
 406              		.loc 1 151 0
ARM GAS  C:\Users\new_s\AppData\Local\Temp\ccjSQnxj.s 			page 11


 407 017e 052A     		cmp	r2, #5
 408 0180 08D1     		bne	.L35
 152:main.c        ****     {
 153:main.c        ****         switch (tecla)
 409              		.loc 1 153 0
 410 0182 D72C     		cmp	r4, #215
 411 0184 08D1     		bne	.L38
 154:main.c        ****         {
 155:main.c        ****             case 0xD7:
 156:main.c        ****                 //B
 157:main.c        ****                 Start = 2;
 412              		.loc 1 157 0
 413 0186 0222     		movs	r2, #2
 414 0188 104B     		ldr	r3, .L40
 415 018a 5A60     		str	r2, [r3, #4]
  16:main.c        ****     uint8 tecla, columna;
 416              		.loc 1 16 0
 417 018c 0024     		movs	r4, #0
 418              	.LVL58:
 158:main.c        ****                 break;
 419              		.loc 1 158 0
 420 018e 04E0     		b	.L7
 421              	.LVL59:
 422              	.L37:
  16:main.c        ****     uint8 tecla, columna;
 423              		.loc 1 16 0
 424 0190 0024     		movs	r4, #0
 425              	.LVL60:
 426 0192 02E0     		b	.L7
 427              	.LVL61:
 428              	.L35:
 429 0194 0024     		movs	r4, #0
 430              	.LVL62:
 431 0196 00E0     		b	.L7
 432              	.LVL63:
 433              	.L38:
 434 0198 0024     		movs	r4, #0
 435              	.LVL64:
 436              	.L7:
 159:main.c        ****         }  
 160:main.c        ****     }
 161:main.c        ****     
 162:main.c        ****     LCD_ClearDisplay();
 437              		.loc 1 162 0
 438 019a 0120     		movs	r0, #1
 439 019c FFF7FEFF 		bl	LCD_WriteControl
 440              	.LVL65:
 163:main.c        ****     LCD_Position(0,0);
 441              		.loc 1 163 0
 442 01a0 0021     		movs	r1, #0
 443 01a2 0846     		mov	r0, r1
 444 01a4 FFF7FEFF 		bl	LCD_Position
 445              	.LVL66:
 164:main.c        ****     LCD_PrintString("Estas presionando");
 446              		.loc 1 164 0
 447 01a8 0E48     		ldr	r0, .L40+24
 448 01aa FFF7FEFF 		bl	LCD_PrintString
ARM GAS  C:\Users\new_s\AppData\Local\Temp\ccjSQnxj.s 			page 12


 449              	.LVL67:
 165:main.c        ****     LCD_Position(1,0);
 450              		.loc 1 165 0
 451 01ae 0021     		movs	r1, #0
 452 01b0 0120     		movs	r0, #1
 453 01b2 FFF7FEFF 		bl	LCD_Position
 454              	.LVL68:
 166:main.c        ****     LCD_PrintNumber(Temp);
 455              		.loc 1 166 0
 456 01b6 2046     		mov	r0, r4
 457 01b8 FFF7FEFF 		bl	LCD_PrintU32Number
 458              	.LVL69:
 459              	.L32:
 167:main.c        ****     while(FILAS_Read()!=0x0F);
 460              		.loc 1 167 0 discriminator 1
 461 01bc FFF7FEFF 		bl	FILAS_Read
 462              	.LVL70:
 463 01c0 0F28     		cmp	r0, #15
 464 01c2 FBD1     		bne	.L32
 168:main.c        ****     FILAS_ClearInterrupt(); 
 465              		.loc 1 168 0
 466 01c4 FFF7FEFF 		bl	FILAS_ClearInterrupt
 467              	.LVL71:
 468 01c8 10BD     		pop	{r4, pc}
 469              	.LVL72:
 470              	.L41:
 471 01ca 00BF     		.align	2
 472              	.L40:
 473 01cc 00000000 		.word	.LANCHOR0
 474 01d0 00000000 		.word	D1
 475 01d4 00000000 		.word	D2
 476 01d8 00000000 		.word	D3
 477 01dc 00000000 		.word	D4
 478 01e0 00000000 		.word	D5
 479 01e4 00000000 		.word	.LC0
 480              		.cfi_endproc
 481              	.LFE64:
 482              		.size	isr_FILA, .-isr_FILA
 483              		.section	.text.main,"ax",%progbits
 484              		.align	2
 485              		.global	main
 486              		.thumb
 487              		.thumb_func
 488              		.type	main, %function
 489              	main:
 490              	.LFB65:
 169:main.c        **** }
 170:main.c        **** int main(void)
 171:main.c        **** {
 491              		.loc 1 171 0
 492              		.cfi_startproc
 493              		@ args = 0, pretend = 0, frame = 0
 494              		@ frame_needed = 0, uses_anonymous_args = 0
 495 0000 10B5     		push	{r4, lr}
 496              		.cfi_def_cfa_offset 8
 497              		.cfi_offset 4, -8
 498              		.cfi_offset 14, -4
ARM GAS  C:\Users\new_s\AppData\Local\Temp\ccjSQnxj.s 			page 13


 172:main.c        ****     CyGlobalIntEnable; 
 499              		.loc 1 172 0
 500              		.syntax unified
 501              	@ 172 "main.c" 1
 502 0002 62B6     		CPSIE   i
 503              	@ 0 "" 2
 173:main.c        ****     
 174:main.c        ****     LCD_Start();
 504              		.loc 1 174 0
 505              		.thumb
 506              		.syntax unified
 507 0004 FFF7FEFF 		bl	LCD_Start
 508              	.LVL73:
 175:main.c        ****     isr_FILA_StartEx(isr_FILA);
 509              		.loc 1 175 0
 510 0008 AB48     		ldr	r0, .L62
 511 000a FFF7FEFF 		bl	isr_FILA_StartEx
 512              	.LVL74:
 176:main.c        ****     SENSOR_int_StartEx(SENSOR_int);
 513              		.loc 1 176 0
 514 000e AB48     		ldr	r0, .L62+4
 515 0010 FFF7FEFF 		bl	SENSOR_int_StartEx
 516              	.LVL75:
 517              	.L43:
 177:main.c        ****     
 178:main.c        **** 
 179:main.c        ****     for(;;)
 180:main.c        ****     {
 181:main.c        ****         Alarm_Write(ALARM_OFF);
 518              		.loc 1 181 0
 519 0014 0020     		movs	r0, #0
 520 0016 FFF7FEFF 		bl	Alarm_Write
 521              	.LVL76:
 182:main.c        ****         
 183:main.c        ****         COLUMNAS_Write(0b1110);
 522              		.loc 1 183 0
 523 001a 0E20     		movs	r0, #14
 524 001c FFF7FEFF 		bl	COLUMNAS_Write
 525              	.LVL77:
 184:main.c        ****         
 185:main.c        ****         COLUMNAS_Write(0b1101);
 526              		.loc 1 185 0
 527 0020 0D20     		movs	r0, #13
 528 0022 FFF7FEFF 		bl	COLUMNAS_Write
 529              	.LVL78:
 186:main.c        **** 
 187:main.c        ****         COLUMNAS_Write(0b1011);
 530              		.loc 1 187 0
 531 0026 0B20     		movs	r0, #11
 532 0028 FFF7FEFF 		bl	COLUMNAS_Write
 533              	.LVL79:
 188:main.c        **** 
 189:main.c        ****         COLUMNAS_Write(0b0111);
 534              		.loc 1 189 0
 535 002c 0720     		movs	r0, #7
 536 002e FFF7FEFF 		bl	COLUMNAS_Write
 537              	.LVL80:
ARM GAS  C:\Users\new_s\AppData\Local\Temp\ccjSQnxj.s 			page 14


 190:main.c        ****         //CyDelayUs(500);
 191:main.c        ****         
 192:main.c        ****         if (Start == 0)
 538              		.loc 1 192 0
 539 0032 A34B     		ldr	r3, .L62+8
 540 0034 5B68     		ldr	r3, [r3, #4]
 541 0036 A3B9     		cbnz	r3, .L44
 193:main.c        ****         {
 194:main.c        ****             LCD_ClearDisplay();
 542              		.loc 1 194 0
 543 0038 0120     		movs	r0, #1
 544 003a FFF7FEFF 		bl	LCD_WriteControl
 545              	.LVL81:
 195:main.c        ****             LCD_Position(0,0);
 546              		.loc 1 195 0
 547 003e 0021     		movs	r1, #0
 548 0040 0846     		mov	r0, r1
 549 0042 FFF7FEFF 		bl	LCD_Position
 550              	.LVL82:
 196:main.c        ****             LCD_PrintString("Presione B");
 551              		.loc 1 196 0
 552 0046 9F48     		ldr	r0, .L62+12
 553 0048 FFF7FEFF 		bl	LCD_PrintString
 554              	.LVL83:
 197:main.c        ****             LCD_Position(1,0);
 555              		.loc 1 197 0
 556 004c 0021     		movs	r1, #0
 557 004e 0120     		movs	r0, #1
 558 0050 FFF7FEFF 		bl	LCD_Position
 559              	.LVL84:
 198:main.c        ****             LCD_PrintString("para empezar.");
 560              		.loc 1 198 0
 561 0054 9C48     		ldr	r0, .L62+16
 562 0056 FFF7FEFF 		bl	LCD_PrintString
 563              	.LVL85:
 199:main.c        ****             CyDelay(100);
 564              		.loc 1 199 0
 565 005a 6420     		movs	r0, #100
 566 005c FFF7FEFF 		bl	CyDelay
 567              	.LVL86:
 568 0060 D8E7     		b	.L43
 569              	.L44:
 200:main.c        ****         }
 201:main.c        ****         else if (Start == 1)
 570              		.loc 1 201 0
 571 0062 012B     		cmp	r3, #1
 572 0064 40F0C880 		bne	.L46
 202:main.c        ****             {
 203:main.c        ****                 if (Digits == 0)
 573              		.loc 1 203 0
 574 0068 954B     		ldr	r3, .L62+8
 575 006a 9B68     		ldr	r3, [r3, #8]
 576 006c A3B9     		cbnz	r3, .L47
 204:main.c        ****                 {
 205:main.c        ****                     LCD_ClearDisplay();
 577              		.loc 1 205 0
 578 006e 0120     		movs	r0, #1
ARM GAS  C:\Users\new_s\AppData\Local\Temp\ccjSQnxj.s 			page 15


 579 0070 FFF7FEFF 		bl	LCD_WriteControl
 580              	.LVL87:
 206:main.c        ****                     LCD_Position(0,0);
 581              		.loc 1 206 0
 582 0074 0021     		movs	r1, #0
 583 0076 0846     		mov	r0, r1
 584 0078 FFF7FEFF 		bl	LCD_Position
 585              	.LVL88:
 207:main.c        ****                     LCD_PrintString("Maximo 5 digitos");
 586              		.loc 1 207 0
 587 007c 9348     		ldr	r0, .L62+20
 588 007e FFF7FEFF 		bl	LCD_PrintString
 589              	.LVL89:
 208:main.c        ****                     LCD_Position(1,0);
 590              		.loc 1 208 0
 591 0082 0021     		movs	r1, #0
 592 0084 0120     		movs	r0, #1
 593 0086 FFF7FEFF 		bl	LCD_Position
 594              	.LVL90:
 209:main.c        ****                     LCD_PrintString("Cantidad: ");
 595              		.loc 1 209 0
 596 008a 9148     		ldr	r0, .L62+24
 597 008c FFF7FEFF 		bl	LCD_PrintString
 598              	.LVL91:
 210:main.c        ****                     CyDelay(100);
 599              		.loc 1 210 0
 600 0090 6420     		movs	r0, #100
 601 0092 FFF7FEFF 		bl	CyDelay
 602              	.LVL92:
 603 0096 BDE7     		b	.L43
 604              	.L47:
 211:main.c        ****                 }
 212:main.c        ****                 else if (Digits == 1)
 605              		.loc 1 212 0
 606 0098 012B     		cmp	r3, #1
 607 009a 18D1     		bne	.L48
 213:main.c        ****                 {
 214:main.c        ****                     LCD_ClearDisplay();
 608              		.loc 1 214 0
 609 009c 0120     		movs	r0, #1
 610 009e FFF7FEFF 		bl	LCD_WriteControl
 611              	.LVL93:
 215:main.c        ****                     LCD_Position(0,0);
 612              		.loc 1 215 0
 613 00a2 0021     		movs	r1, #0
 614 00a4 0846     		mov	r0, r1
 615 00a6 FFF7FEFF 		bl	LCD_Position
 616              	.LVL94:
 216:main.c        ****                     LCD_PrintString("Maximo 5 digitos");
 617              		.loc 1 216 0
 618 00aa 8848     		ldr	r0, .L62+20
 619 00ac FFF7FEFF 		bl	LCD_PrintString
 620              	.LVL95:
 217:main.c        ****                     LCD_Position(1,0);
 621              		.loc 1 217 0
 622 00b0 0021     		movs	r1, #0
 623 00b2 0120     		movs	r0, #1
ARM GAS  C:\Users\new_s\AppData\Local\Temp\ccjSQnxj.s 			page 16


 624 00b4 FFF7FEFF 		bl	LCD_Position
 625              	.LVL96:
 218:main.c        ****                     LCD_PrintString("Cantidad: ");
 626              		.loc 1 218 0
 627 00b8 8548     		ldr	r0, .L62+24
 628 00ba FFF7FEFF 		bl	LCD_PrintString
 629              	.LVL97:
 219:main.c        ****                     LCD_PrintNumber(D1);
 630              		.loc 1 219 0
 631 00be 854B     		ldr	r3, .L62+28
 632 00c0 1888     		ldrh	r0, [r3]
 633 00c2 FFF7FEFF 		bl	LCD_PrintU32Number
 634              	.LVL98:
 220:main.c        ****                     CyDelay(100);
 635              		.loc 1 220 0
 636 00c6 6420     		movs	r0, #100
 637 00c8 FFF7FEFF 		bl	CyDelay
 638              	.LVL99:
 639 00cc A2E7     		b	.L43
 640              	.L48:
 221:main.c        ****                 }
 222:main.c        ****                 else if (Digits == 2)
 641              		.loc 1 222 0
 642 00ce 022B     		cmp	r3, #2
 643 00d0 1CD1     		bne	.L49
 223:main.c        ****                 {
 224:main.c        ****                     LCD_ClearDisplay();
 644              		.loc 1 224 0
 645 00d2 0120     		movs	r0, #1
 646 00d4 FFF7FEFF 		bl	LCD_WriteControl
 647              	.LVL100:
 225:main.c        ****                     LCD_Position(0,0);
 648              		.loc 1 225 0
 649 00d8 0021     		movs	r1, #0
 650 00da 0846     		mov	r0, r1
 651 00dc FFF7FEFF 		bl	LCD_Position
 652              	.LVL101:
 226:main.c        ****                     LCD_PrintString("Maximo 5 digitos");
 653              		.loc 1 226 0
 654 00e0 7A48     		ldr	r0, .L62+20
 655 00e2 FFF7FEFF 		bl	LCD_PrintString
 656              	.LVL102:
 227:main.c        ****                     LCD_Position(1,0);
 657              		.loc 1 227 0
 658 00e6 0021     		movs	r1, #0
 659 00e8 0120     		movs	r0, #1
 660 00ea FFF7FEFF 		bl	LCD_Position
 661              	.LVL103:
 228:main.c        ****                     LCD_PrintString("Cantidad: ");
 662              		.loc 1 228 0
 663 00ee 7848     		ldr	r0, .L62+24
 664 00f0 FFF7FEFF 		bl	LCD_PrintString
 665              	.LVL104:
 229:main.c        ****                     LCD_PrintNumber(D1);
 666              		.loc 1 229 0
 667 00f4 774B     		ldr	r3, .L62+28
 668 00f6 1888     		ldrh	r0, [r3]
ARM GAS  C:\Users\new_s\AppData\Local\Temp\ccjSQnxj.s 			page 17


 669 00f8 FFF7FEFF 		bl	LCD_PrintU32Number
 670              	.LVL105:
 230:main.c        ****                     LCD_PrintNumber(D2);
 671              		.loc 1 230 0
 672 00fc 764B     		ldr	r3, .L62+32
 673 00fe 1888     		ldrh	r0, [r3]
 674 0100 FFF7FEFF 		bl	LCD_PrintU32Number
 675              	.LVL106:
 231:main.c        ****                     CyDelay(100);
 676              		.loc 1 231 0
 677 0104 6420     		movs	r0, #100
 678 0106 FFF7FEFF 		bl	CyDelay
 679              	.LVL107:
 680 010a 83E7     		b	.L43
 681              	.L49:
 232:main.c        ****                 }
 233:main.c        ****                 else if (Digits == 3)
 682              		.loc 1 233 0
 683 010c 032B     		cmp	r3, #3
 684 010e 20D1     		bne	.L50
 234:main.c        ****                 {
 235:main.c        ****                     LCD_ClearDisplay();
 685              		.loc 1 235 0
 686 0110 0120     		movs	r0, #1
 687 0112 FFF7FEFF 		bl	LCD_WriteControl
 688              	.LVL108:
 236:main.c        ****                     LCD_Position(0,0);
 689              		.loc 1 236 0
 690 0116 0021     		movs	r1, #0
 691 0118 0846     		mov	r0, r1
 692 011a FFF7FEFF 		bl	LCD_Position
 693              	.LVL109:
 237:main.c        ****                     LCD_PrintString("Maximo 5 digitos");
 694              		.loc 1 237 0
 695 011e 6B48     		ldr	r0, .L62+20
 696 0120 FFF7FEFF 		bl	LCD_PrintString
 697              	.LVL110:
 238:main.c        ****                     LCD_Position(1,0);
 698              		.loc 1 238 0
 699 0124 0021     		movs	r1, #0
 700 0126 0120     		movs	r0, #1
 701 0128 FFF7FEFF 		bl	LCD_Position
 702              	.LVL111:
 239:main.c        ****                     LCD_PrintString("Cantidad: ");
 703              		.loc 1 239 0
 704 012c 6848     		ldr	r0, .L62+24
 705 012e FFF7FEFF 		bl	LCD_PrintString
 706              	.LVL112:
 240:main.c        ****                     LCD_PrintNumber(D1);
 707              		.loc 1 240 0
 708 0132 684B     		ldr	r3, .L62+28
 709 0134 1888     		ldrh	r0, [r3]
 710 0136 FFF7FEFF 		bl	LCD_PrintU32Number
 711              	.LVL113:
 241:main.c        ****                     LCD_PrintNumber(D2);
 712              		.loc 1 241 0
 713 013a 674B     		ldr	r3, .L62+32
ARM GAS  C:\Users\new_s\AppData\Local\Temp\ccjSQnxj.s 			page 18


 714 013c 1888     		ldrh	r0, [r3]
 715 013e FFF7FEFF 		bl	LCD_PrintU32Number
 716              	.LVL114:
 242:main.c        ****                     LCD_PrintNumber(D3);
 717              		.loc 1 242 0
 718 0142 664B     		ldr	r3, .L62+36
 719 0144 1888     		ldrh	r0, [r3]
 720 0146 FFF7FEFF 		bl	LCD_PrintU32Number
 721              	.LVL115:
 243:main.c        ****                     CyDelay(100);
 722              		.loc 1 243 0
 723 014a 6420     		movs	r0, #100
 724 014c FFF7FEFF 		bl	CyDelay
 725              	.LVL116:
 726 0150 60E7     		b	.L43
 727              	.L50:
 244:main.c        ****                 }
 245:main.c        ****                 else if (Digits == 4)
 728              		.loc 1 245 0
 729 0152 042B     		cmp	r3, #4
 730 0154 24D1     		bne	.L51
 246:main.c        ****                 {
 247:main.c        ****                     LCD_ClearDisplay();
 731              		.loc 1 247 0
 732 0156 0120     		movs	r0, #1
 733 0158 FFF7FEFF 		bl	LCD_WriteControl
 734              	.LVL117:
 248:main.c        ****                     LCD_Position(0,0);
 735              		.loc 1 248 0
 736 015c 0021     		movs	r1, #0
 737 015e 0846     		mov	r0, r1
 738 0160 FFF7FEFF 		bl	LCD_Position
 739              	.LVL118:
 249:main.c        ****                     LCD_PrintString("Maximo 5 digitos");
 740              		.loc 1 249 0
 741 0164 5948     		ldr	r0, .L62+20
 742 0166 FFF7FEFF 		bl	LCD_PrintString
 743              	.LVL119:
 250:main.c        ****                     LCD_Position(1,0);
 744              		.loc 1 250 0
 745 016a 0021     		movs	r1, #0
 746 016c 0120     		movs	r0, #1
 747 016e FFF7FEFF 		bl	LCD_Position
 748              	.LVL120:
 251:main.c        ****                     LCD_PrintString("Cantidad: ");
 749              		.loc 1 251 0
 750 0172 5748     		ldr	r0, .L62+24
 751 0174 FFF7FEFF 		bl	LCD_PrintString
 752              	.LVL121:
 252:main.c        ****                     LCD_PrintNumber(D1);
 753              		.loc 1 252 0
 754 0178 564B     		ldr	r3, .L62+28
 755 017a 1888     		ldrh	r0, [r3]
 756 017c FFF7FEFF 		bl	LCD_PrintU32Number
 757              	.LVL122:
 253:main.c        ****                     LCD_PrintNumber(D2);
 758              		.loc 1 253 0
ARM GAS  C:\Users\new_s\AppData\Local\Temp\ccjSQnxj.s 			page 19


 759 0180 554B     		ldr	r3, .L62+32
 760 0182 1888     		ldrh	r0, [r3]
 761 0184 FFF7FEFF 		bl	LCD_PrintU32Number
 762              	.LVL123:
 254:main.c        ****                     LCD_PrintNumber(D3);
 763              		.loc 1 254 0
 764 0188 544B     		ldr	r3, .L62+36
 765 018a 1888     		ldrh	r0, [r3]
 766 018c FFF7FEFF 		bl	LCD_PrintU32Number
 767              	.LVL124:
 255:main.c        ****                     LCD_PrintNumber(D4);
 768              		.loc 1 255 0
 769 0190 534B     		ldr	r3, .L62+40
 770 0192 1888     		ldrh	r0, [r3]
 771 0194 FFF7FEFF 		bl	LCD_PrintU32Number
 772              	.LVL125:
 256:main.c        ****                     CyDelay(100);
 773              		.loc 1 256 0
 774 0198 6420     		movs	r0, #100
 775 019a FFF7FEFF 		bl	CyDelay
 776              	.LVL126:
 777 019e 39E7     		b	.L43
 778              	.L51:
 257:main.c        ****                 }
 258:main.c        ****                 else if (Digits == 5)
 779              		.loc 1 258 0
 780 01a0 052B     		cmp	r3, #5
 781 01a2 7FF437AF 		bne	.L43
 259:main.c        ****                 {
 260:main.c        ****                     LCD_ClearDisplay();
 782              		.loc 1 260 0
 783 01a6 0120     		movs	r0, #1
 784 01a8 FFF7FEFF 		bl	LCD_WriteControl
 785              	.LVL127:
 261:main.c        ****                     LCD_Position(0,0);
 786              		.loc 1 261 0
 787 01ac 0021     		movs	r1, #0
 788 01ae 0846     		mov	r0, r1
 789 01b0 FFF7FEFF 		bl	LCD_Position
 790              	.LVL128:
 262:main.c        ****                     LCD_PrintString("Maximo 5 digitos");
 791              		.loc 1 262 0
 792 01b4 4548     		ldr	r0, .L62+20
 793 01b6 FFF7FEFF 		bl	LCD_PrintString
 794              	.LVL129:
 263:main.c        ****                     LCD_Position(1,0);
 795              		.loc 1 263 0
 796 01ba 0021     		movs	r1, #0
 797 01bc 0120     		movs	r0, #1
 798 01be FFF7FEFF 		bl	LCD_Position
 799              	.LVL130:
 264:main.c        ****                     LCD_PrintString("Cantidad: ");
 800              		.loc 1 264 0
 801 01c2 4348     		ldr	r0, .L62+24
 802 01c4 FFF7FEFF 		bl	LCD_PrintString
 803              	.LVL131:
 265:main.c        ****                     LCD_PrintNumber(D1);
ARM GAS  C:\Users\new_s\AppData\Local\Temp\ccjSQnxj.s 			page 20


 804              		.loc 1 265 0
 805 01c8 424B     		ldr	r3, .L62+28
 806 01ca 1888     		ldrh	r0, [r3]
 807 01cc FFF7FEFF 		bl	LCD_PrintU32Number
 808              	.LVL132:
 266:main.c        ****                     LCD_PrintNumber(D2);
 809              		.loc 1 266 0
 810 01d0 414B     		ldr	r3, .L62+32
 811 01d2 1888     		ldrh	r0, [r3]
 812 01d4 FFF7FEFF 		bl	LCD_PrintU32Number
 813              	.LVL133:
 267:main.c        ****                     LCD_PrintNumber(D3);
 814              		.loc 1 267 0
 815 01d8 404B     		ldr	r3, .L62+36
 816 01da 1888     		ldrh	r0, [r3]
 817 01dc FFF7FEFF 		bl	LCD_PrintU32Number
 818              	.LVL134:
 268:main.c        ****                     LCD_PrintNumber(D4);
 819              		.loc 1 268 0
 820 01e0 3F4B     		ldr	r3, .L62+40
 821 01e2 1888     		ldrh	r0, [r3]
 822 01e4 FFF7FEFF 		bl	LCD_PrintU32Number
 823              	.LVL135:
 269:main.c        ****                     LCD_PrintNumber(D5);
 824              		.loc 1 269 0
 825 01e8 3E4B     		ldr	r3, .L62+44
 826 01ea 1888     		ldrh	r0, [r3]
 827 01ec FFF7FEFF 		bl	LCD_PrintU32Number
 828              	.LVL136:
 270:main.c        ****                     CyDelay(100);
 829              		.loc 1 270 0
 830 01f0 6420     		movs	r0, #100
 831 01f2 FFF7FEFF 		bl	CyDelay
 832              	.LVL137:
 833 01f6 0DE7     		b	.L43
 834              	.L46:
 271:main.c        ****                 }
 272:main.c        ****                 
 273:main.c        ****             }
 274:main.c        ****             else if (Start == 2)
 835              		.loc 1 274 0
 836 01f8 022B     		cmp	r3, #2
 837 01fa 7FF40BAF 		bne	.L43
 275:main.c        ****                 {
 276:main.c        ****                     switch (Digits)
 838              		.loc 1 276 0
 839 01fe 304B     		ldr	r3, .L62+8
 840 0200 9B68     		ldr	r3, [r3, #8]
 841 0202 013B     		subs	r3, r3, #1
 842 0204 042B     		cmp	r3, #4
 843 0206 00F29080 		bhi	.L59
 844 020a DFE803F0 		tbb	[pc, r3]
 845              	.L54:
 846 020e 03       		.byte	(.L53-.L54)/2
 847 020f 08       		.byte	(.L55-.L54)/2
 848 0210 13       		.byte	(.L56-.L54)/2
 849 0211 21       		.byte	(.L57-.L54)/2
ARM GAS  C:\Users\new_s\AppData\Local\Temp\ccjSQnxj.s 			page 21


 850 0212 38       		.byte	(.L58-.L54)/2
 851 0213 00       		.p2align 1
 852              	.L53:
 277:main.c        ****                     {
 278:main.c        ****                         case (1):
 279:main.c        ****                             FinalN = (D1 * 1);
 853              		.loc 1 279 0
 854 0214 2F4B     		ldr	r3, .L62+28
 855 0216 1A68     		ldr	r2, [r3]
 856 0218 334B     		ldr	r3, .L62+48
 857 021a 1A60     		str	r2, [r3]
 280:main.c        ****                             break;
 858              		.loc 1 280 0
 859 021c 85E0     		b	.L59
 860              	.L55:
 281:main.c        ****                         case (2):
 282:main.c        ****                             FinalN = (D1 * 10) + D2;
 861              		.loc 1 282 0
 862 021e 2D4B     		ldr	r3, .L62+28
 863 0220 1B68     		ldr	r3, [r3]
 864 0222 03EB8303 		add	r3, r3, r3, lsl #2
 865 0226 5A00     		lsls	r2, r3, #1
 866 0228 2B4B     		ldr	r3, .L62+32
 867 022a 1B68     		ldr	r3, [r3]
 868 022c 1344     		add	r3, r3, r2
 869 022e 2E4A     		ldr	r2, .L62+48
 870 0230 1360     		str	r3, [r2]
 283:main.c        ****                             break;
 871              		.loc 1 283 0
 872 0232 7AE0     		b	.L59
 873              	.L56:
 284:main.c        ****                         case (3):
 285:main.c        ****                             FinalN = (D3 * 100) + (D2 * 10) + D3;
 874              		.loc 1 285 0
 875 0234 294B     		ldr	r3, .L62+36
 876 0236 1968     		ldr	r1, [r3]
 877 0238 274B     		ldr	r3, .L62+32
 878 023a 1A68     		ldr	r2, [r3]
 879 023c 02EB8202 		add	r2, r2, r2, lsl #2
 880 0240 5300     		lsls	r3, r2, #1
 881 0242 6422     		movs	r2, #100
 882 0244 02FB0133 		mla	r3, r2, r1, r3
 883 0248 0B44     		add	r3, r3, r1
 884 024a 274A     		ldr	r2, .L62+48
 885 024c 1360     		str	r3, [r2]
 286:main.c        ****                             break;
 886              		.loc 1 286 0
 887 024e 6CE0     		b	.L59
 888              	.L57:
 287:main.c        ****                         case (4):
 288:main.c        ****                             FinalN = (D1 * 1000) + (D2 * 100) + (D3 * 10) + D4;
 889              		.loc 1 288 0
 890 0250 204B     		ldr	r3, .L62+28
 891 0252 1B68     		ldr	r3, [r3]
 892 0254 204A     		ldr	r2, .L62+32
 893 0256 1168     		ldr	r1, [r2]
 894 0258 6422     		movs	r2, #100
ARM GAS  C:\Users\new_s\AppData\Local\Temp\ccjSQnxj.s 			page 22


 895 025a 02FB01F2 		mul	r2, r2, r1
 896 025e 4FF47A71 		mov	r1, #1000
 897 0262 01FB0321 		mla	r1, r1, r3, r2
 898 0266 1D4B     		ldr	r3, .L62+36
 899 0268 1B68     		ldr	r3, [r3]
 900 026a 03EB8303 		add	r3, r3, r3, lsl #2
 901 026e 5A00     		lsls	r2, r3, #1
 902 0270 0A44     		add	r2, r2, r1
 903 0272 1B4B     		ldr	r3, .L62+40
 904 0274 1B68     		ldr	r3, [r3]
 905 0276 1A44     		add	r2, r2, r3
 906 0278 1B4B     		ldr	r3, .L62+48
 907 027a 1A60     		str	r2, [r3]
 289:main.c        ****                             break;
 908              		.loc 1 289 0
 909 027c 55E0     		b	.L59
 910              	.L58:
 290:main.c        ****                         case (5):
 291:main.c        ****                             FinalN = (D1 * 10000) + (D2 * 1000) + (D3 * 100) + (D4 * 10) + D5;
 911              		.loc 1 291 0
 912 027e 154B     		ldr	r3, .L62+28
 913 0280 1B68     		ldr	r3, [r3]
 914 0282 154A     		ldr	r2, .L62+32
 915 0284 1168     		ldr	r1, [r2]
 916 0286 4FF47A72 		mov	r2, #1000
 917 028a 02FB01F2 		mul	r2, r2, r1
 918 028e 42F21071 		movw	r1, #10000
 919 0292 01FB0322 		mla	r2, r1, r3, r2
 920 0296 114B     		ldr	r3, .L62+36
 921 0298 1B68     		ldr	r3, [r3]
 922 029a 6421     		movs	r1, #100
 923 029c 01FB0321 		mla	r1, r1, r3, r2
 924 02a0 0F4B     		ldr	r3, .L62+40
 925 02a2 1B68     		ldr	r3, [r3]
 926 02a4 03EB8303 		add	r3, r3, r3, lsl #2
 927 02a8 5A00     		lsls	r2, r3, #1
 928 02aa 0A44     		add	r2, r2, r1
 929 02ac 0D4B     		ldr	r3, .L62+44
 930 02ae 1B68     		ldr	r3, [r3]
 931 02b0 1A44     		add	r2, r2, r3
 932 02b2 0D4B     		ldr	r3, .L62+48
 933 02b4 1A60     		str	r2, [r3]
 292:main.c        ****                             break;
 934              		.loc 1 292 0
 935 02b6 38E0     		b	.L59
 936              	.L63:
 937              		.align	2
 938              	.L62:
 939 02b8 00000000 		.word	isr_FILA
 940 02bc 00000000 		.word	SENSOR_int
 941 02c0 00000000 		.word	.LANCHOR0
 942 02c4 14000000 		.word	.LC1
 943 02c8 20000000 		.word	.LC2
 944 02cc 30000000 		.word	.LC3
 945 02d0 44000000 		.word	.LC4
 946 02d4 00000000 		.word	D1
 947 02d8 00000000 		.word	D2
ARM GAS  C:\Users\new_s\AppData\Local\Temp\ccjSQnxj.s 			page 23


 948 02dc 00000000 		.word	D3
 949 02e0 00000000 		.word	D4
 950 02e4 00000000 		.word	D5
 951 02e8 00000000 		.word	FinalN
 952              	.L60:
 953              	.LBB2:
 293:main.c        ****                     }
 294:main.c        ****                     
 295:main.c        ****                     while (Counter > 0)
 296:main.c        ****                     {
 297:main.c        ****                         CyDelay(250);
 954              		.loc 1 297 0
 955 02ec FA20     		movs	r0, #250
 956 02ee FFF7FEFF 		bl	CyDelay
 957              	.LVL138:
 298:main.c        ****                         LCD_ClearDisplay();
 958              		.loc 1 298 0
 959 02f2 0120     		movs	r0, #1
 960 02f4 FFF7FEFF 		bl	LCD_WriteControl
 961              	.LVL139:
 299:main.c        ****                         LCD_Position(0,0);
 962              		.loc 1 299 0
 963 02f8 0021     		movs	r1, #0
 964 02fa 0846     		mov	r0, r1
 965 02fc FFF7FEFF 		bl	LCD_Position
 966              	.LVL140:
 300:main.c        ****                         LCD_PrintString("Max: ");
 967              		.loc 1 300 0
 968 0300 1248     		ldr	r0, .L64
 969 0302 FFF7FEFF 		bl	LCD_PrintString
 970              	.LVL141:
 301:main.c        ****                         LCD_PrintDecUint16(FinalN);
 971              		.loc 1 301 0
 972 0306 124C     		ldr	r4, .L64+4
 973 0308 2088     		ldrh	r0, [r4]
 974 030a FFF7FEFF 		bl	LCD_PrintU32Number
 975              	.LVL142:
 302:main.c        ****                         LCD_Position(1,0);
 976              		.loc 1 302 0
 977 030e 0021     		movs	r1, #0
 978 0310 0120     		movs	r0, #1
 979 0312 FFF7FEFF 		bl	LCD_Position
 980              	.LVL143:
 303:main.c        ****                         LCD_PrintString("Actual: ");
 981              		.loc 1 303 0
 982 0316 0F48     		ldr	r0, .L64+8
 983 0318 FFF7FEFF 		bl	LCD_PrintString
 984              	.LVL144:
 304:main.c        ****                         int NCount = FinalN - Counter;
 985              		.loc 1 304 0
 986 031c 2368     		ldr	r3, [r4]
 987 031e 0E4A     		ldr	r2, .L64+12
 988 0320 1068     		ldr	r0, [r2]
 989 0322 181A     		subs	r0, r3, r0
 990              	.LVL145:
 305:main.c        ****                         LCD_PrintDecUint16(NCount);
 991              		.loc 1 305 0
ARM GAS  C:\Users\new_s\AppData\Local\Temp\ccjSQnxj.s 			page 24


 992 0324 80B2     		uxth	r0, r0
 993              	.LVL146:
 994 0326 FFF7FEFF 		bl	LCD_PrintU32Number
 995              	.LVL147:
 996              	.L59:
 997              	.LBE2:
 295:main.c        ****                     {
 998              		.loc 1 295 0
 999 032a 0B4B     		ldr	r3, .L64+12
 1000 032c 1B68     		ldr	r3, [r3]
 1001 032e 002B     		cmp	r3, #0
 1002 0330 DCDC     		bgt	.L60
 306:main.c        ****                     }
 307:main.c        ****                     
 308:main.c        ****                     Alarm_Write(ALARM_ON);
 1003              		.loc 1 308 0
 1004 0332 0120     		movs	r0, #1
 1005 0334 FFF7FEFF 		bl	Alarm_Write
 1006              	.LVL148:
 309:main.c        ****                     CyDelay(3500);
 1007              		.loc 1 309 0
 1008 0338 40F6AC50 		movw	r0, #3500
 1009 033c FFF7FEFF 		bl	CyDelay
 1010              	.LVL149:
 310:main.c        ****                     
 311:main.c        ****                     Start = 0;
 1011              		.loc 1 311 0
 1012 0340 054B     		ldr	r3, .L64+12
 1013 0342 0022     		movs	r2, #0
 1014 0344 5A60     		str	r2, [r3, #4]
 312:main.c        ****                     Digits = 0;
 1015              		.loc 1 312 0
 1016 0346 9A60     		str	r2, [r3, #8]
 313:main.c        ****                     Counter = 0;
 1017              		.loc 1 313 0
 1018 0348 1A60     		str	r2, [r3]
 1019 034a 63E6     		b	.L43
 1020              	.L65:
 1021              		.align	2
 1022              	.L64:
 1023 034c 50000000 		.word	.LC5
 1024 0350 00000000 		.word	FinalN
 1025 0354 58000000 		.word	.LC6
 1026 0358 00000000 		.word	.LANCHOR0
 1027              		.cfi_endproc
 1028              	.LFE65:
 1029              		.size	main, .-main
 1030              		.comm	FinalN,4,4
 1031              		.comm	D5,4,4
 1032              		.comm	D4,4,4
 1033              		.comm	D3,4,4
 1034              		.comm	D2,4,4
 1035              		.comm	D1,4,4
 1036              		.global	Digits
 1037              		.global	Start
 1038              		.global	Counter
 1039              		.section	.rodata.str1.4,"aMS",%progbits,1
ARM GAS  C:\Users\new_s\AppData\Local\Temp\ccjSQnxj.s 			page 25


 1040              		.align	2
 1041              	.LC0:
 1042 0000 45737461 		.ascii	"Estas presionando\000"
 1042      73207072 
 1042      6573696F 
 1042      6E616E64 
 1042      6F00
 1043 0012 0000     		.space	2
 1044              	.LC1:
 1045 0014 50726573 		.ascii	"Presione B\000"
 1045      696F6E65 
 1045      204200
 1046 001f 00       		.space	1
 1047              	.LC2:
 1048 0020 70617261 		.ascii	"para empezar.\000"
 1048      20656D70 
 1048      657A6172 
 1048      2E00
 1049 002e 0000     		.space	2
 1050              	.LC3:
 1051 0030 4D617869 		.ascii	"Maximo 5 digitos\000"
 1051      6D6F2035 
 1051      20646967 
 1051      69746F73 
 1051      00
 1052 0041 000000   		.space	3
 1053              	.LC4:
 1054 0044 43616E74 		.ascii	"Cantidad: \000"
 1054      69646164 
 1054      3A2000
 1055 004f 00       		.space	1
 1056              	.LC5:
 1057 0050 4D61783A 		.ascii	"Max: \000"
 1057      2000
 1058 0056 0000     		.space	2
 1059              	.LC6:
 1060 0058 41637475 		.ascii	"Actual: \000"
 1060      616C3A20 
 1060      00
 1061              		.bss
 1062              		.align	2
 1063              		.set	.LANCHOR0,. + 0
 1064              		.type	Counter, %object
 1065              		.size	Counter, 4
 1066              	Counter:
 1067 0000 00000000 		.space	4
 1068              		.type	Start, %object
 1069              		.size	Start, 4
 1070              	Start:
 1071 0004 00000000 		.space	4
 1072              		.type	Digits, %object
 1073              		.size	Digits, 4
 1074              	Digits:
 1075 0008 00000000 		.space	4
 1076              		.text
 1077              	.Letext0:
 1078              		.file 2 "c:\\program files (x86)\\cypress\\psoc creator\\4.4\\psoc creator\\import\\gnu\\arm\\5.4.
ARM GAS  C:\Users\new_s\AppData\Local\Temp\ccjSQnxj.s 			page 26


 1079              		.file 3 "c:\\program files (x86)\\cypress\\psoc creator\\4.4\\psoc creator\\import\\gnu\\arm\\5.4.
 1080              		.file 4 "Generated_Source\\PSoC5/cytypes.h"
 1081              		.file 5 "Generated_Source\\PSoC5/core_cm3.h"
 1082              		.file 6 "Generated_Source\\PSoC5/CyLib.h"
 1083              		.file 7 "Generated_Source\\PSoC5/SENSOR.h"
 1084              		.file 8 "Generated_Source\\PSoC5/FILAS.h"
 1085              		.file 9 "Generated_Source\\PSoC5/COLUMNAS.h"
 1086              		.file 10 "Generated_Source\\PSoC5/LCD.h"
 1087              		.file 11 "Generated_Source\\PSoC5/isr_FILA.h"
 1088              		.file 12 "Generated_Source\\PSoC5/SENSOR_int.h"
 1089              		.file 13 "Generated_Source\\PSoC5/Alarm.h"